target datalayout = "e-m:e-p270:32:32-p271:32:32-p272:64:64-i64:64-i128:128-f80:128-n8:16:32:64-S128"
target triple = "x86_64-pc-linux-gnu"

%struct._address = type { i32, i32, ptr, ptr }
%struct._someip_info = type { i16, i16, i16, i16, i8, i8 }
%struct._someip_segment_key = type { %struct._address, %struct._address, i32, i32, %struct._someip_info }

; Function Attrs: nounwind null_pointer_is_valid sspstrong uwtable
define internal i32 @someip_segment_hash(ptr noundef %0) #7 {
  %2 = alloca ptr, align 8
  %3 = alloca ptr, align 8
  %4 = alloca i32, align 4
  store ptr %0, ptr %2, align 8
  call void @llvm.lifetime.start.p0(i64 8, ptr %3) #19
  %5 = load ptr, ptr %2, align 8
  store ptr %5, ptr %3, align 8
  call void @llvm.lifetime.start.p0(i64 4, ptr %4) #19
  %6 = load ptr, ptr %3, align 8
  %7 = getelementptr inbounds nuw %struct._someip_segment_key, ptr %6, i32 0, i32 4
  %8 = getelementptr inbounds nuw %struct._someip_info, ptr %7, i32 0, i32 0
  %9 = load i16, ptr %8, align 8
  %10 = zext i16 %9 to i32
  %11 = shl i32 %10, 16
  %12 = load ptr, ptr %3, align 8
  %13 = getelementptr inbounds nuw %struct._someip_segment_key, ptr %12, i32 0, i32 4
  %14 = getelementptr inbounds nuw %struct._someip_info, ptr %13, i32 0, i32 1
  %15 = load i16, ptr %14, align 2
  %16 = zext i16 %15 to i32
  %17 = or i32 %11, %16
  %18 = load ptr, ptr %3, align 8
  %19 = getelementptr inbounds nuw %struct._someip_segment_key, ptr %18, i32 0, i32 4
  %20 = getelementptr inbounds nuw %struct._someip_info, ptr %19, i32 0, i32 2
  %21 = load i16, ptr %20, align 4
  %22 = zext i16 %21 to i32
  %23 = shl i32 %22, 16
  %24 = load ptr, ptr %3, align 8
  %25 = getelementptr inbounds nuw %struct._someip_segment_key, ptr %24, i32 0, i32 4
  %26 = getelementptr inbounds nuw %struct._someip_info, ptr %25, i32 0, i32 3
  %27 = load i16, ptr %26, align 2
  %28 = zext i16 %27 to i32
  %29 = or i32 %23, %28
  %30 = xor i32 %17, %29
  store i32 %30, ptr %4, align 4
  %31 = load i32, ptr %4, align 4
  call void @llvm.lifetime.end.p0(i64 4, ptr %4) #19
  call void @llvm.lifetime.end.p0(i64 8, ptr %3) #19
  ret i32 %31
}