; Function Attrs: mustprogress nofree norecurse nosync nounwind null_pointer_is_valid sspstrong willreturn memory(argmem: read) uwtable
define internal i32 @someip_segment_hash(ptr noundef readonly captures(none) %0) #6 {
  %2 = getelementptr inbounds nuw i8, ptr %0, i64 56
  %3 = load i16, ptr %2, align 8
  %4 = zext i16 %3 to i32
  %5 = shl nuw i32 %4, 16
  %6 = getelementptr inbounds nuw i8, ptr %0, i64 58
  %7 = load i16, ptr %6, align 2
  %8 = zext i16 %7 to i32
  %9 = or disjoint i32 %5, %8
  %10 = getelementptr inbounds nuw i8, ptr %0, i64 60
  %11 = load i16, ptr %10, align 4
  %12 = zext i16 %11 to i32
  %13 = shl nuw i32 %12, 16
  %14 = getelementptr inbounds nuw i8, ptr %0, i64 62
  %15 = load i16, ptr %14, align 2
  %16 = zext i16 %15 to i32
  %17 = or disjoint i32 %13, %16
  %18 = xor i32 %17, %9
  ret i32 %18
}